target datalayout = "e-m:e-p270:32:32-p271:32:32-p272:64:64-i64:64-i128:128-f80:128-n8:16:32:64-S128"
target triple = "x86_64-pc-linux-gnu"

%struct.QVirtio9PDevice = type { %struct.QOSGraphObject, %struct.QVirtio9P }
%struct.QOSGraphObject = type { ptr, ptr, ptr, ptr, ptr }
%struct.QVirtio9P = type { ptr, ptr }

@alloc = internal global ptr null, align 8

; Function Attrs: nounwind sspstrong uwtable
define internal ptr @virtio_9p_device_create(ptr noundef %0, ptr noundef %1, ptr noundef %2) #0 {
  %4 = alloca ptr, align 8
  %5 = alloca ptr, align 8
  %6 = alloca ptr, align 8
  %7 = alloca ptr, align 8
  %8 = alloca i64, align 8
  %9 = alloca i64, align 8
  %10 = alloca ptr, align 8
  %11 = alloca ptr, align 8
  %12 = alloca ptr, align 8
  store ptr %0, ptr %4, align 8
  store ptr %1, ptr %5, align 8
  store ptr %2, ptr %6, align 8
  call void @llvm.lifetime.start.p0(i64 8, ptr %7) #14
  call void @llvm.lifetime.start.p0(i64 8, ptr %8) #14
  store i64 1, ptr %8, align 8
  call void @llvm.lifetime.start.p0(i64 8, ptr %9) #14
  store i64 56, ptr %9, align 8
  call void @llvm.lifetime.start.p0(i64 8, ptr %10) #14
  store ptr null, ptr %10, align 8, !annotation !4
  %13 = load i64, ptr %9, align 8
  %14 = icmp eq i64 %13, 1
  br i1 %14, label %15, label %18

15:                                               ; preds = %3
  %16 = load i64, ptr %8, align 8
  %17 = call noalias ptr @g_malloc0(i64 noundef %16) #17
  store ptr %17, ptr %10, align 8
  br label %39

18:                                               ; preds = %3
  %19 = load i64, ptr %8, align 8
  %20 = call i1 @llvm.is.constant.i64(i64 %19)
  br i1 %20, label %21, label %34

21:                                               ; preds = %18
  %22 = load i64, ptr %9, align 8
  %23 = icmp eq i64 %22, 0
  br i1 %23, label %29, label %24

24:                                               ; preds = %21
  %25 = load i64, ptr %8, align 8
  %26 = load i64, ptr %9, align 8
  %27 = udiv i64 -1, %26
  %28 = icmp ule i64 %25, %27
  br i1 %28, label %29, label %34

29:                                               ; preds = %24, %21
  %30 = load i64, ptr %8, align 8
  %31 = load i64, ptr %9, align 8
  %32 = mul i64 %30, %31
  %33 = call noalias ptr @g_malloc0(i64 noundef %32) #17
  store ptr %33, ptr %10, align 8
  br label %38

34:                                               ; preds = %24, %18
  %35 = load i64, ptr %8, align 8
  %36 = load i64, ptr %9, align 8
  %37 = call noalias ptr @g_malloc0_n(i64 noundef %35, i64 noundef %36) #18
  store ptr %37, ptr %10, align 8
  br label %38

38:                                               ; preds = %34, %29
  br label %39

39:                                               ; preds = %38, %15
  %40 = load ptr, ptr %10, align 8
  store ptr %40, ptr %11, align 8
  call void @llvm.lifetime.end.p0(i64 8, ptr %10) #14
  call void @llvm.lifetime.end.p0(i64 8, ptr %9) #14
  call void @llvm.lifetime.end.p0(i64 8, ptr %8) #14
  %41 = load ptr, ptr %11, align 8
  store ptr %41, ptr %7, align 8
  call void @llvm.lifetime.start.p0(i64 8, ptr %12) #14
  %42 = load ptr, ptr %7, align 8
  %43 = getelementptr inbounds nuw %struct.QVirtio9PDevice, ptr %42, i32 0, i32 1
  store ptr %43, ptr %12, align 8
  %44 = load ptr, ptr %4, align 8
  %45 = load ptr, ptr %12, align 8
  %46 = getelementptr inbounds nuw %struct.QVirtio9P, ptr %45, i32 0, i32 0
  store ptr %44, ptr %46, align 8
  %47 = load ptr, ptr %5, align 8
  store ptr %47, ptr @alloc, align 8
  %48 = load ptr, ptr %7, align 8
  %49 = getelementptr inbounds nuw %struct.QVirtio9PDevice, ptr %48, i32 0, i32 0
  %50 = getelementptr inbounds nuw %struct.QOSGraphObject, ptr %49, i32 0, i32 3
  store ptr @virtio_9p_device_destructor, ptr %50, align 8
  %51 = load ptr, ptr %7, align 8
  %52 = getelementptr inbounds nuw %struct.QVirtio9PDevice, ptr %51, i32 0, i32 0
  %53 = getelementptr inbounds nuw %struct.QOSGraphObject, ptr %52, i32 0, i32 0
  store ptr @virtio_9p_device_get_driver, ptr %53, align 8
  %54 = load ptr, ptr %7, align 8
  %55 = getelementptr inbounds nuw %struct.QVirtio9PDevice, ptr %54, i32 0, i32 0
  %56 = getelementptr inbounds nuw %struct.QOSGraphObject, ptr %55, i32 0, i32 2
  store ptr @virtio_9p_device_start_hw, ptr %56, align 8
  %57 = load ptr, ptr %7, align 8
  %58 = getelementptr inbounds nuw %struct.QVirtio9PDevice, ptr %57, i32 0, i32 0
  call void @llvm.lifetime.end.p0(i64 8, ptr %12) #14
  call void @llvm.lifetime.end.p0(i64 8, ptr %7) #14
  ret ptr %58
}