; Function Attrs: nounwind sspstrong uwtable
define internal noalias noundef ptr @virtio_9p_device_create(ptr noundef %0, ptr noundef %1, ptr readnone captures(none) %2) #0 {
  %4 = tail call noalias dereferenceable_or_null(56) ptr @g_malloc0(i64 noundef 56) #15
  %5 = getelementptr inbounds nuw i8, ptr %4, i64 40
  store ptr %0, ptr %5, align 8
  store ptr %1, ptr @alloc, align 8
  %6 = getelementptr inbounds nuw i8, ptr %4, i64 24
  store ptr @virtio_9p_device_destructor, ptr %6, align 8
  store ptr @virtio_9p_device_get_driver, ptr %4, align 8
  %7 = getelementptr inbounds nuw i8, ptr %4, i64 16
  store ptr @virtio_9p_device_start_hw, ptr %7, align 8
  ret ptr %4
}